Certificate:
    Data:
        Version: 3 (0x2)
        Serial Number: 4096 (0x1000)
        Signature Algorithm: sha256WithRSAEncryption
        Issuer: C=US, ST=Massachusetts, O=ICA, CN=ica.gnu
        Validity
            Not Before: Nov 27 20:51:19 2024 GMT
            Not After : Nov 27 20:51:19 2025 GMT
        Subject: C=US, ST=Massachusetts, O=ICA-Client, CN=client.ica.gnu
        Subject Public Key Info:
            Public Key Algorithm: rsaEncryption
                Public-Key: (2048 bit)
                Modulus:
                    00:c6:7e:66:d3:87:a7:86:39:a4:62:81:c8:55:b0:
                    7e:80:5a:a8:cc:c1:4e:81:c1:99:34:b3:26:6b:73:
                    8b:88:b3:0e:5b:40:1d:12:3b:49:08:d0:2f:47:00:
                    2d:5d:71:c4:34:af:d3:c4:cc:8d:25:d7:54:8d:47:
                    99:20:ce:90:54:d7:e8:63:92:fe:01:01:32:f1:20:
                    b5:00:13:c9:76:8f:6d:3f:98:d2:6c:f9:a9:02:f3:
                    2a:b9:0d:d2:71:ee:fc:30:f7:7b:c8:2c:36:e5:96:
                    9b:ca:3f:b2:3e:16:2a:9b:53:c1:05:3a:2e:19:54:
                    21:31:c0:82:a8:95:07:fd:a7:6c:bb:97:83:4a:27:
                    75:da:04:2c:89:2a:13:a6:a0:b4:be:bc:c3:40:24:
                    88:59:29:d8:94:74:ee:de:c8:72:92:5d:76:b2:c7:
                    8f:43:b4:37:2a:75:60:c1:d3:aa:75:b2:e7:f4:ab:
                    42:19:8f:26:f4:ca:75:d4:fe:ab:00:6b:ff:4c:97:
                    ea:4a:ca:74:5e:a5:bc:4a:d9:7e:55:ce:51:5e:c1:
                    f2:8e:5f:6f:38:bf:ed:e1:6d:71:a5:98:5e:9e:93:
                    22:70:14:ac:ed:90:49:be:db:e3:c6:5a:fe:7e:4b:
                    69:d3:79:37:53:b0:2a:10:48:b7:b5:ea:02:4a:81:
                    ff:6b
                Exponent: 65537 (0x10001)
        X509v3 extensions:
            X509v3 Subject Key Identifier: 
                A0:8F:2B:91:B7:06:F8:CB:F0:2A:A3:A5:FC:77:A7:ED:46:63:FB:29
            X509v3 Authority Key Identifier: 
                14:FA:DA:77:F8:45:92:B7:7C:38:FC:74:CA:26:74:2B:B7:D4:36:75
    Signature Algorithm: sha256WithRSAEncryption
    Signature Value:
        9a:b4:2b:13:bf:b1:39:0f:70:bc:c1:ed:df:7e:28:91:01:11:
        07:a1:93:eb:08:58:4a:59:b6:73:80:33:f6:19:05:65:b5:ad:
        38:f2:f8:17:34:f1:06:89:5f:a1:0a:dd:c5:32:cc:f9:36:52:
        59:e8:33:7b:e4:e2:47:93:88:4d:f0:e0:b9:ff:d2:9e:35:ee:
        11:60:60:43:76:f9:41:1c:8a:96:7c:40:37:e7:b6:5f:f6:d1:
        de:24:6e:d5:21:77:ae:8c:4a:ca:ca:5a:72:4c:8d:cf:b6:7e:
        4d:46:00:da:b7:07:ad:7f:b1:41:90:27:32:da:86:de:19:b9:
        33:1b:98:82:b4:a4:16:de:50:24:64:e9:62:96:25:c9:55:78:
        9e:58:97:8c:08:6b:5b:49:7d:e5:e2:0a:8e:4e:02:78:64:12:
        c9:31:2d:80:24:53:c0:b8:c6:8f:c8:bc:76:92:61:c2:9a:1c:
        ed:ed:21:dd:d3:9a:3b:af:ba:b4:77:66:45:97:f1:02:ae:67:
        7c:65:d7:c8:d8:58:38:c2:ef:59:07:1b:f5:20:c7:ea:5a:38:
        63:de:f9:8c:fc:b3:9f:e4:40:89:19:fd:21:bc:e6:e1:08:fb:
        33:a4:f9:69:d8:a4:58:f9:ad:5f:fa:d3:4a:8d:e8:98:45:56:
        c3:cf:35:f8
-----BEGIN CERTIFICATE-----
MIIDVjCCAj6gAwIBAgICEAAwDQYJKoZIhvcNAQELBQAwRTELMAkGA1UEBhMCVVMx
FjAUBgNVBAgMDU1hc3NhY2h1c2V0dHMxDDAKBgNVBAoMA0lDQTEQMA4GA1UEAwwH
aWNhLmdudTAeFw0yNDExMjcyMDUxMTlaFw0yNTExMjcyMDUxMTlaMFMxCzAJBgNV
BAYTAlVTMRYwFAYDVQQIDA1NYXNzYWNodXNldHRzMRMwEQYDVQQKDApJQ0EtQ2xp
ZW50MRcwFQYDVQQDDA5jbGllbnQuaWNhLmdudTCCASIwDQYJKoZIhvcNAQEBBQAD
ggEPADCCAQoCggEBAMZ+ZtOHp4Y5pGKByFWwfoBaqMzBToHBmTSzJmtzi4izDltA
HRI7SQjQL0cALV1xxDSv08TMjSXXVI1HmSDOkFTX6GOS/gEBMvEgtQATyXaPbT+Y
0mz5qQLzKrkN0nHu/DD3e8gsNuWWm8o/sj4WKptTwQU6LhlUITHAgqiVB/2nbLuX
g0onddoELIkqE6agtL68w0AkiFkp2JR07t7IcpJddrLHj0O0Nyp1YMHTqnWy5/Sr
QhmPJvTKddT+qwBr/0yX6krKdF6lvErZflXOUV7B8o5fbzi/7eFtcaWYXp6TInAU
rO2QSb7b48Za/n5LadN5N1OwKhBIt7XqAkqB/2sCAwEAAaNCMEAwHQYDVR0OBBYE
FKCPK5G3BvjL8Cqjpfx3p+1GY/spMB8GA1UdIwQYMBaAFBT62nf4RZK3fDj8dMom
dCu31DZ1MA0GCSqGSIb3DQEBCwUAA4IBAQCatCsTv7E5D3C8we3ffiiRAREHoZPr
CFhKWbZzgDP2GQVlta048vgXNPEGiV+hCt3FMsz5NlJZ6DN75OJHk4hN8OC5/9Ke
Ne4RYGBDdvlBHIqWfEA357Zf9tHeJG7VIXeujErKylpyTI3Ptn5NRgDatwetf7FB
kCcy2obeGbkzG5iCtKQW3lAkZOliliXJVXieWJeMCGtbSX3l4gqOTgJ4ZBLJMS2A
JFPAuMaPyLx2kmHCmhzt7SHd05o7r7q0d2ZFl/ECrmd8ZdfI2Fg4wu9ZBxv1IMfq
Wjhj3vmM/LOf5ECJGf0hvObhCPszpPlp2KRY+a1f+tNKjeiYRVbDzzX4
-----END CERTIFICATE-----
