Certificate:
    Data:
        Version: 3 (0x2)
        Serial Number: 4097 (0x1001)
        Signature Algorithm: sha256WithRSAEncryption
        Issuer: C=US, ST=Massachusetts, O=ICA, CN=ica.gnu
        Validity
            Not Before: Nov 27 20:51:19 2024 GMT
            Not After : Nov 27 20:51:19 2025 GMT
        Subject: C=US, ST=Massachusetts, O=ICA-Client, CN=other.ica.gnu
        Subject Public Key Info:
            Public Key Algorithm: rsaEncryption
                Public-Key: (2048 bit)
                Modulus:
                    00:9d:83:3b:b3:8c:a9:c6:2c:61:c5:c6:ba:78:c7:
                    0a:bd:31:e6:33:cb:27:39:18:0b:84:ca:ac:95:f2:
                    d1:ac:7a:c2:6d:7a:b0:c0:e0:7b:07:53:33:4a:73:
                    95:e4:ce:7b:dc:7c:c0:cf:39:67:69:32:2c:29:07:
                    ef:cc:d2:42:c2:3d:35:bc:6c:86:1a:fa:22:65:37:
                    84:92:8d:f3:a8:05:61:8f:06:13:bc:29:78:48:5e:
                    10:59:9f:0c:c6:50:d4:13:26:6d:8e:74:cc:92:b2:
                    f2:07:0e:3c:6d:29:93:44:6a:4e:94:8f:20:17:e0:
                    84:58:a5:68:7f:67:bf:cc:61:62:7c:9c:7f:11:48:
                    86:5d:21:35:04:c8:9e:43:ea:10:13:70:ec:94:6e:
                    9b:fa:5c:6a:e9:28:de:cd:1f:e8:50:db:0e:8b:bf:
                    06:8f:4b:41:42:25:10:05:3c:c0:90:4d:e9:8d:3b:
                    cc:ba:66:2f:d7:d0:51:06:7d:d3:ec:2d:c1:af:08:
                    44:40:a8:ad:00:83:99:71:aa:13:d4:7c:ad:eb:8f:
                    97:56:f4:42:25:f8:04:49:b7:04:d4:42:cb:c5:84:
                    aa:c1:b9:6e:eb:b8:e9:40:91:ef:12:2f:35:42:4b:
                    24:a2:e2:84:b4:36:0b:a3:4c:a2:50:f1:54:af:3d:
                    20:2d
                Exponent: 65537 (0x10001)
        X509v3 extensions:
            X509v3 Subject Key Identifier: 
                FA:DA:58:04:3E:83:3F:E7:6D:70:67:98:F4:91:3B:C2:93:64:CE:B9
            X509v3 Authority Key Identifier: 
                14:FA:DA:77:F8:45:92:B7:7C:38:FC:74:CA:26:74:2B:B7:D4:36:75
    Signature Algorithm: sha256WithRSAEncryption
    Signature Value:
        65:ea:4d:a3:36:29:53:f4:fc:06:3c:24:04:f6:82:c3:ff:d5:
        b7:b4:9a:ea:aa:d5:40:6d:6d:11:a2:05:ca:68:1d:91:9f:54:
        63:8a:b6:9f:1b:a2:0a:38:4d:f7:d9:24:68:bc:0b:4d:82:5d:
        e1:6b:28:2f:27:ae:44:35:83:68:00:0b:b2:37:6c:4c:59:0e:
        c3:2d:71:25:46:98:47:36:a8:c5:f3:36:2a:65:0e:7f:10:71:
        3b:82:35:2e:5b:59:d0:3f:c0:ef:b5:f3:c1:33:76:0d:e3:9a:
        00:2a:24:f0:f9:ba:57:01:d4:1d:c4:60:48:81:42:5f:81:02:
        59:10:4f:f7:56:fd:5b:b9:eb:95:e8:9d:22:88:5c:37:e2:56:
        2b:e6:73:42:c5:05:4c:3f:3e:fa:05:b9:b4:e5:e8:21:1b:88:
        e1:20:0e:02:f1:70:e3:f6:23:f6:5c:12:92:cd:16:da:04:b2:
        b6:d9:b4:34:db:46:0a:ac:4d:b1:01:ee:d3:14:ef:92:84:9d:
        3c:f3:f7:75:6a:da:ae:7d:a9:c1:10:36:6f:84:ea:c1:07:89:
        c1:d0:78:43:34:00:22:16:5e:df:82:37:64:c9:e9:8f:5b:d3:
        9b:bb:f2:ea:ea:59:24:00:77:27:27:20:41:38:f9:7b:d6:87:
        6a:80:55:6c
-----BEGIN CERTIFICATE-----
MIIDVTCCAj2gAwIBAgICEAEwDQYJKoZIhvcNAQELBQAwRTELMAkGA1UEBhMCVVMx
FjAUBgNVBAgMDU1hc3NhY2h1c2V0dHMxDDAKBgNVBAoMA0lDQTEQMA4GA1UEAwwH
aWNhLmdudTAeFw0yNDExMjcyMDUxMTlaFw0yNTExMjcyMDUxMTlaMFIxCzAJBgNV
BAYTAlVTMRYwFAYDVQQIDA1NYXNzYWNodXNldHRzMRMwEQYDVQQKDApJQ0EtQ2xp
ZW50MRYwFAYDVQQDDA1vdGhlci5pY2EuZ251MIIBIjANBgkqhkiG9w0BAQEFAAOC
AQ8AMIIBCgKCAQEAnYM7s4ypxixhxca6eMcKvTHmM8snORgLhMqslfLRrHrCbXqw
wOB7B1MzSnOV5M573HzAzzlnaTIsKQfvzNJCwj01vGyGGvoiZTeEko3zqAVhjwYT
vCl4SF4QWZ8MxlDUEyZtjnTMkrLyBw48bSmTRGpOlI8gF+CEWKVof2e/zGFifJx/
EUiGXSE1BMieQ+oQE3DslG6b+lxq6SjezR/oUNsOi78Gj0tBQiUQBTzAkE3pjTvM
umYv19BRBn3T7C3BrwhEQKitAIOZcaoT1Hyt64+XVvRCJfgESbcE1ELLxYSqwblu
67jpQJHvEi81QkskouKEtDYLo0yiUPFUrz0gLQIDAQABo0IwQDAdBgNVHQ4EFgQU
+tpYBD6DP+dtcGeY9JE7wpNkzrkwHwYDVR0jBBgwFoAUFPrad/hFkrd8OPx0yiZ0
K7fUNnUwDQYJKoZIhvcNAQELBQADggEBAGXqTaM2KVP0/AY8JAT2gsP/1be0muqq
1UBtbRGiBcpoHZGfVGOKtp8bogo4TffZJGi8C02CXeFrKC8nrkQ1g2gAC7I3bExZ
DsMtcSVGmEc2qMXzNiplDn8QcTuCNS5bWdA/wO+188Ezdg3jmgAqJPD5ulcB1B3E
YEiBQl+BAlkQT/dW/Vu565XonSKIXDfiVivmc0LFBUw/PvoFubTl6CEbiOEgDgLx
cOP2I/ZcEpLNFtoEsrbZtDTbRgqsTbEB7tMU75KEnTzz93Vq2q59qcEQNm+E6sEH
icHQeEM0ACIWXt+CN2TJ6Y9b05u78urqWSQAdycnIEE4+XvWh2qAVWw=
-----END CERTIFICATE-----
