-----BEGIN CERTIFICATE-----
MIIDjTCCAnWgAwIBAgIUKkxAx2lVnvYcaNqBpJmTgXh1/VgwDQYJKoZIhvcNAQEL
BQAwVjELMAkGA1UEBhMCVVMxFjAUBgNVBAgMDU1hc3NhY2h1c2V0dHMxDzANBgNV
BAcMBkJvc3RvbjENMAsGA1UECgwEUm9vdDEPMA0GA1UEAwwGY2EuZ251MB4XDTI0
MTEyOTEyNDUyOFoXDTM0MTEyNzEyNDUyOFowVjELMAkGA1UEBhMCVVMxFjAUBgNV
BAgMDU1hc3NhY2h1c2V0dHMxDzANBgNVBAcMBkJvc3RvbjENMAsGA1UECgwEUm9v
dDEPMA0GA1UEAwwGY2EuZ251MIIBIjANBgkqhkiG9w0BAQEFAAOCAQ8AMIIBCgKC
AQEA23YSrcGIBgZf9bbzTnmYFy+4tM82kUhsVFKxWCNEMdKmhaeVvXogyd6Evq4P
NvBGdUABDtHp4pSEijrxWbn8sxddTznoT/8IOuHI0/PtwXYP/sHQ/HzekEUVKN2Z
NMbMUzQfaJyiIV5TrZlaBwHjQ+sRs8E56C3cQjkwuyjll2zDsEfmEnPimZRAL3kb
wW8VFfBcR2Id+a9xKjwlnB4eXQFAgYINoRgCtUOUxSeFgNnwkOUSqDknO6Xi47YZ
EdLlHyUnv5eX547xUkrYhfQuQwaqpGrjHf3GFoysN8P9kd2f1qsJKtQcUbF9DDeZ
6ya47X/LBO8QflMsVjb1V3oz9QIDAQABo1MwUTAdBgNVHQ4EFgQUsvdZoX3RxdN6
wrONr31SOA9Qbc4wHwYDVR0jBBgwFoAUsvdZoX3RxdN6wrONr31SOA9Qbc4wDwYD
VR0TAQH/BAUwAwEB/zANBgkqhkiG9w0BAQsFAAOCAQEAS3PyV7crGk9brqU90aML
2TWkjgzFb3/nASnpvVYiqyiV4neGiEjtDy7eVlqP6GlD2pYcVodY+ly9wNlo85/h
YfgCFFl37tMG7PpRac2qBqaSn1DpwsCb08LjRrOvoaRffWUikSoZmsYDlaCgl9nT
pGtIrz0BSoyu5mHalIZTVQOrbkNBNK6ZgnYy2iWuiLa5Z1xzKpsRBRaKJc1pcQE/
QVbPdCiyGQMPEVn/KHxitlycFoee/fA+izXVdstVwfig2DoMvrlGZvEkN1ER3Yz4
QPJ6HzOsBQL1F+YhnMCQfc2rpcwxAWf8JMy6jsCq42KGq53tkWqHyQ6Zu2SiLRYk
CA==
-----END CERTIFICATE-----
Certificate:
    Data:
        Version: 3 (0x2)
        Serial Number: 4097 (0x1001)
        Signature Algorithm: sha256WithRSAEncryption
        Issuer: C=US, ST=Massachusetts, L=Boston, O=Root, CN=ca.gnu
        Validity
            Not Before: Nov 27 20:51:19 2024 GMT
            Not After : Nov 27 20:51:19 2025 GMT
        Subject: C=US, ST=Massachusetts, O=ICA, CN=ica.gnu
        Subject Public Key Info:
            Public Key Algorithm: rsaEncryption
                Public-Key: (2048 bit)
                Modulus:
                    00:d5:1f:d7:1a:46:9a:70:ed:6a:88:af:be:80:04:
                    42:32:26:cf:c4:d8:11:05:21:3f:b3:ef:29:d9:a3:
                    39:37:b7:89:d5:64:9a:cc:c1:f4:9c:0a:8b:41:cb:
                    09:7e:ab:16:62:24:6b:69:ea:ba:78:a2:97:a3:e4:
                    0a:06:c2:2e:14:31:20:15:61:74:7d:70:5d:e8:9f:
                    33:63:4b:08:81:8b:8f:5a:19:af:92:99:c6:c5:a2:
                    a4:16:f9:1c:fd:bb:03:f4:2a:1e:98:f2:b2:c1:20:
                    69:0e:96:ea:3e:dc:b5:91:40:1f:aa:51:a6:a4:09:
                    06:2f:d9:be:b0:e3:4e:d4:27:2c:b3:74:b2:90:08:
                    09:d6:cb:7a:4f:f0:dd:43:99:ef:22:24:94:04:c0:
                    70:48:ba:d8:c4:4f:64:89:bf:7a:a3:74:27:d6:1f:
                    a7:ab:04:20:e6:99:c8:8f:2f:14:99:02:d1:eb:ce:
                    2b:0f:ba:5e:b4:80:22:7b:ef:3c:0a:90:a4:97:7b:
                    4c:19:5f:d4:5e:d7:21:32:3f:3e:05:8a:67:01:d9:
                    39:f5:7e:39:a7:cf:64:c1:4a:d7:b5:c2:f4:a2:c0:
                    a4:ef:9f:25:96:96:95:bb:bc:44:27:7f:eb:dd:43:
                    b4:28:4a:70:f6:21:83:0f:59:cb:98:69:57:8f:ca:
                    a8:93
                Exponent: 65537 (0x10001)
        X509v3 extensions:
            X509v3 Subject Key Identifier: 
                14:FA:DA:77:F8:45:92:B7:7C:38:FC:74:CA:26:74:2B:B7:D4:36:75
            X509v3 Authority Key Identifier: 
                1A:03:C0:AD:5C:3D:FE:76:38:FC:20:8C:B2:73:5C:A3:44:1D:0F:EC
            X509v3 Basic Constraints: critical
                CA:TRUE, pathlen:0
            X509v3 Key Usage: critical
                Digital Signature, Certificate Sign, CRL Sign
    Signature Algorithm: sha256WithRSAEncryption
    Signature Value:
        00:f7:92:a1:7e:cb:38:f6:62:28:fc:86:ea:7d:64:2a:0e:3d:
        95:e9:86:d1:00:29:42:5f:97:27:60:31:33:6b:b1:40:9e:d0:
        20:fd:c9:a1:19:21:41:91:6d:d0:97:af:0a:9f:e9:55:b8:fe:
        66:20:c6:42:31:9b:8e:08:8e:ea:cb:86:17:e9:12:49:43:de:
        03:74:a2:19:77:7e:4f:ef:f6:3c:7e:d3:ed:47:fd:24:9b:d5:
        cc:29:4a:cf:30:d9:40:bc:73:d9:d6:5f:f1:75:48:f8:00:06:
        2c:a3:84:f0:9d:0c:51:14:40:d0:9d:4b:7c:79:20:93:b9:2f:
        29:f6:39:ae:36:4f:08:45:65:43:f7:4e:5d:88:84:da:fd:46:
        a3:14:2e:cb:b9:fa:80:b4:a6:bf:db:72:91:0d:05:a5:82:f6:
        f9:6c:81:8b:2b:d9:13:5c:cd:d5:da:4b:31:5e:f0:4d:9a:a7:
        2e:cb:73:6e:7e:07:7c:4a:cc:9a:12:f0:cb:86:34:50:73:c6:
        2c:40:23:73:ed:7f:f5:c9:61:8e:85:8b:37:fc:33:20:af:fd:
        6d:4a:cc:3f:60:22:7b:ef:c4:9c:51:d6:f3:de:7c:06:40:a8:
        4f:ea:38:07:b5:df:4f:b0:56:22:af:50:3d:6b:eb:46:42:7b:
        a1:3b:1b:df
-----BEGIN CERTIFICATE-----
MIIDfTCCAmWgAwIBAgICEAEwDQYJKoZIhvcNAQELBQAwVjELMAkGA1UEBhMCVVMx
FjAUBgNVBAgMDU1hc3NhY2h1c2V0dHMxDzANBgNVBAcMBkJvc3RvbjENMAsGA1UE
CgwEUm9vdDEPMA0GA1UEAwwGY2EuZ251MB4XDTI0MTEyNzIwNTExOVoXDTI1MTEy
NzIwNTExOVowRTELMAkGA1UEBhMCVVMxFjAUBgNVBAgMDU1hc3NhY2h1c2V0dHMx
DDAKBgNVBAoMA0lDQTEQMA4GA1UEAwwHaWNhLmdudTCCASIwDQYJKoZIhvcNAQEB
BQADggEPADCCAQoCggEBANUf1xpGmnDtaoivvoAEQjImz8TYEQUhP7PvKdmjOTe3
idVkmszB9JwKi0HLCX6rFmIka2nquniil6PkCgbCLhQxIBVhdH1wXeifM2NLCIGL
j1oZr5KZxsWipBb5HP27A/QqHpjyssEgaQ6W6j7ctZFAH6pRpqQJBi/ZvrDjTtQn
LLN0spAICdbLek/w3UOZ7yIklATAcEi62MRPZIm/eqN0J9Yfp6sEIOaZyI8vFJkC
0evOKw+6XrSAInvvPAqQpJd7TBlf1F7XITI/PgWKZwHZOfV+OafPZMFK17XC9KLA
pO+fJZaWlbu8RCd/691DtChKcPYhgw9Zy5hpV4/KqJMCAwEAAaNmMGQwHQYDVR0O
BBYEFBT62nf4RZK3fDj8dMomdCu31DZ1MB8GA1UdIwQYMBaAFBoDwK1cPf52OPwg
jLJzXKNEHQ/sMBIGA1UdEwEB/wQIMAYBAf8CAQAwDgYDVR0PAQH/BAQDAgGGMA0G
CSqGSIb3DQEBCwUAA4IBAQAA95Khfss49mIo/IbqfWQqDj2V6YbRAClCX5cnYDEz
a7FAntAg/cmhGSFBkW3Ql68Kn+lVuP5mIMZCMZuOCI7qy4YX6RJJQ94DdKIZd35P
7/Y8ftPtR/0km9XMKUrPMNlAvHPZ1l/xdUj4AAYso4TwnQxRFEDQnUt8eSCTuS8p
9jmuNk8IRWVD905diITa/UajFC7LufqAtKa/23KRDQWlgvb5bIGLK9kTXM3V2ksx
XvBNmqcuy3Nufgd8SsyaEvDLhjRQc8YsQCNz7X/1yWGOhYs3/DMgr/1tSsw/YCJ7
78ScUdbz3nwGQKhP6jgHtd9PsFYir1A9a+tGQnuhOxvf
-----END CERTIFICATE-----
Certificate:
    Data:
        Version: 3 (0x2)
        Serial Number: 4096 (0x1000)
        Signature Algorithm: sha256WithRSAEncryption
        Issuer: C=US, ST=Massachusetts, O=ICA, CN=ica.gnu
        Validity
            Not Before: Nov 27 20:51:19 2024 GMT
            Not After : Nov 27 20:51:19 2025 GMT
        Subject: C=US, ST=Massachusetts, O=ICA-Client, CN=client.ica.gnu
        Subject Public Key Info:
            Public Key Algorithm: rsaEncryption
                Public-Key: (2048 bit)
                Modulus:
                    00:c6:7e:66:d3:87:a7:86:39:a4:62:81:c8:55:b0:
                    7e:80:5a:a8:cc:c1:4e:81:c1:99:34:b3:26:6b:73:
                    8b:88:b3:0e:5b:40:1d:12:3b:49:08:d0:2f:47:00:
                    2d:5d:71:c4:34:af:d3:c4:cc:8d:25:d7:54:8d:47:
                    99:20:ce:90:54:d7:e8:63:92:fe:01:01:32:f1:20:
                    b5:00:13:c9:76:8f:6d:3f:98:d2:6c:f9:a9:02:f3:
                    2a:b9:0d:d2:71:ee:fc:30:f7:7b:c8:2c:36:e5:96:
                    9b:ca:3f:b2:3e:16:2a:9b:53:c1:05:3a:2e:19:54:
                    21:31:c0:82:a8:95:07:fd:a7:6c:bb:97:83:4a:27:
                    75:da:04:2c:89:2a:13:a6:a0:b4:be:bc:c3:40:24:
                    88:59:29:d8:94:74:ee:de:c8:72:92:5d:76:b2:c7:
                    8f:43:b4:37:2a:75:60:c1:d3:aa:75:b2:e7:f4:ab:
                    42:19:8f:26:f4:ca:75:d4:fe:ab:00:6b:ff:4c:97:
                    ea:4a:ca:74:5e:a5:bc:4a:d9:7e:55:ce:51:5e:c1:
                    f2:8e:5f:6f:38:bf:ed:e1:6d:71:a5:98:5e:9e:93:
                    22:70:14:ac:ed:90:49:be:db:e3:c6:5a:fe:7e:4b:
                    69:d3:79:37:53:b0:2a:10:48:b7:b5:ea:02:4a:81:
                    ff:6b
                Exponent: 65537 (0x10001)
        X509v3 extensions:
            X509v3 Subject Key Identifier: 
                A0:8F:2B:91:B7:06:F8:CB:F0:2A:A3:A5:FC:77:A7:ED:46:63:FB:29
            X509v3 Authority Key Identifier: 
                14:FA:DA:77:F8:45:92:B7:7C:38:FC:74:CA:26:74:2B:B7:D4:36:75
    Signature Algorithm: sha256WithRSAEncryption
    Signature Value:
        9a:b4:2b:13:bf:b1:39:0f:70:bc:c1:ed:df:7e:28:91:01:11:
        07:a1:93:eb:08:58:4a:59:b6:73:80:33:f6:19:05:65:b5:ad:
        38:f2:f8:17:34:f1:06:89:5f:a1:0a:dd:c5:32:cc:f9:36:52:
        59:e8:33:7b:e4:e2:47:93:88:4d:f0:e0:b9:ff:d2:9e:35:ee:
        11:60:60:43:76:f9:41:1c:8a:96:7c:40:37:e7:b6:5f:f6:d1:
        de:24:6e:d5:21:77:ae:8c:4a:ca:ca:5a:72:4c:8d:cf:b6:7e:
        4d:46:00:da:b7:07:ad:7f:b1:41:90:27:32:da:86:de:19:b9:
        33:1b:98:82:b4:a4:16:de:50:24:64:e9:62:96:25:c9:55:78:
        9e:58:97:8c:08:6b:5b:49:7d:e5:e2:0a:8e:4e:02:78:64:12:
        c9:31:2d:80:24:53:c0:b8:c6:8f:c8:bc:76:92:61:c2:9a:1c:
        ed:ed:21:dd:d3:9a:3b:af:ba:b4:77:66:45:97:f1:02:ae:67:
        7c:65:d7:c8:d8:58:38:c2:ef:59:07:1b:f5:20:c7:ea:5a:38:
        63:de:f9:8c:fc:b3:9f:e4:40:89:19:fd:21:bc:e6:e1:08:fb:
        33:a4:f9:69:d8:a4:58:f9:ad:5f:fa:d3:4a:8d:e8:98:45:56:
        c3:cf:35:f8
-----BEGIN CERTIFICATE-----
MIIDVjCCAj6gAwIBAgICEAAwDQYJKoZIhvcNAQELBQAwRTELMAkGA1UEBhMCVVMx
FjAUBgNVBAgMDU1hc3NhY2h1c2V0dHMxDDAKBgNVBAoMA0lDQTEQMA4GA1UEAwwH
aWNhLmdudTAeFw0yNDExMjcyMDUxMTlaFw0yNTExMjcyMDUxMTlaMFMxCzAJBgNV
BAYTAlVTMRYwFAYDVQQIDA1NYXNzYWNodXNldHRzMRMwEQYDVQQKDApJQ0EtQ2xp
ZW50MRcwFQYDVQQDDA5jbGllbnQuaWNhLmdudTCCASIwDQYJKoZIhvcNAQEBBQAD
ggEPADCCAQoCggEBAMZ+ZtOHp4Y5pGKByFWwfoBaqMzBToHBmTSzJmtzi4izDltA
HRI7SQjQL0cALV1xxDSv08TMjSXXVI1HmSDOkFTX6GOS/gEBMvEgtQATyXaPbT+Y
0mz5qQLzKrkN0nHu/DD3e8gsNuWWm8o/sj4WKptTwQU6LhlUITHAgqiVB/2nbLuX
g0onddoELIkqE6agtL68w0AkiFkp2JR07t7IcpJddrLHj0O0Nyp1YMHTqnWy5/Sr
QhmPJvTKddT+qwBr/0yX6krKdF6lvErZflXOUV7B8o5fbzi/7eFtcaWYXp6TInAU
rO2QSb7b48Za/n5LadN5N1OwKhBIt7XqAkqB/2sCAwEAAaNCMEAwHQYDVR0OBBYE
FKCPK5G3BvjL8Cqjpfx3p+1GY/spMB8GA1UdIwQYMBaAFBT62nf4RZK3fDj8dMom
dCu31DZ1MA0GCSqGSIb3DQEBCwUAA4IBAQCatCsTv7E5D3C8we3ffiiRAREHoZPr
CFhKWbZzgDP2GQVlta048vgXNPEGiV+hCt3FMsz5NlJZ6DN75OJHk4hN8OC5/9Ke
Ne4RYGBDdvlBHIqWfEA357Zf9tHeJG7VIXeujErKylpyTI3Ptn5NRgDatwetf7FB
kCcy2obeGbkzG5iCtKQW3lAkZOliliXJVXieWJeMCGtbSX3l4gqOTgJ4ZBLJMS2A
JFPAuMaPyLx2kmHCmhzt7SHd05o7r7q0d2ZFl/ECrmd8ZdfI2Fg4wu9ZBxv1IMfq
Wjhj3vmM/LOf5ECJGf0hvObhCPszpPlp2KRY+a1f+tNKjeiYRVbDzzX4
-----END CERTIFICATE-----
