-----BEGIN CERTIFICATE-----
MIIDjTCCAnWgAwIBAgIUKkxAx2lVnvYcaNqBpJmTgXh1/VgwDQYJKoZIhvcNAQEL
BQAwVjELMAkGA1UEBhMCVVMxFjAUBgNVBAgMDU1hc3NhY2h1c2V0dHMxDzANBgNV
BAcMBkJvc3RvbjENMAsGA1UECgwEUm9vdDEPMA0GA1UEAwwGY2EuZ251MB4XDTI0
MTEyOTEyNDUyOFoXDTM0MTEyNzEyNDUyOFowVjELMAkGA1UEBhMCVVMxFjAUBgNV
BAgMDU1hc3NhY2h1c2V0dHMxDzANBgNVBAcMBkJvc3RvbjENMAsGA1UECgwEUm9v
dDEPMA0GA1UEAwwGY2EuZ251MIIBIjANBgkqhkiG9w0BAQEFAAOCAQ8AMIIBCgKC
AQEA23YSrcGIBgZf9bbzTnmYFy+4tM82kUhsVFKxWCNEMdKmhaeVvXogyd6Evq4P
NvBGdUABDtHp4pSEijrxWbn8sxddTznoT/8IOuHI0/PtwXYP/sHQ/HzekEUVKN2Z
NMbMUzQfaJyiIV5TrZlaBwHjQ+sRs8E56C3cQjkwuyjll2zDsEfmEnPimZRAL3kb
wW8VFfBcR2Id+a9xKjwlnB4eXQFAgYINoRgCtUOUxSeFgNnwkOUSqDknO6Xi47YZ
EdLlHyUnv5eX547xUkrYhfQuQwaqpGrjHf3GFoysN8P9kd2f1qsJKtQcUbF9DDeZ
6ya47X/LBO8QflMsVjb1V3oz9QIDAQABo1MwUTAdBgNVHQ4EFgQUsvdZoX3RxdN6
wrONr31SOA9Qbc4wHwYDVR0jBBgwFoAUsvdZoX3RxdN6wrONr31SOA9Qbc4wDwYD
VR0TAQH/BAUwAwEB/zANBgkqhkiG9w0BAQsFAAOCAQEAS3PyV7crGk9brqU90aML
2TWkjgzFb3/nASnpvVYiqyiV4neGiEjtDy7eVlqP6GlD2pYcVodY+ly9wNlo85/h
YfgCFFl37tMG7PpRac2qBqaSn1DpwsCb08LjRrOvoaRffWUikSoZmsYDlaCgl9nT
pGtIrz0BSoyu5mHalIZTVQOrbkNBNK6ZgnYy2iWuiLa5Z1xzKpsRBRaKJc1pcQE/
QVbPdCiyGQMPEVn/KHxitlycFoee/fA+izXVdstVwfig2DoMvrlGZvEkN1ER3Yz4
QPJ6HzOsBQL1F+YhnMCQfc2rpcwxAWf8JMy6jsCq42KGq53tkWqHyQ6Zu2SiLRYk
CA==
-----END CERTIFICATE-----
Certificate:
    Data:
        Version: 3 (0x2)
        Serial Number: 4097 (0x1001)
        Signature Algorithm: sha256WithRSAEncryption
        Issuer: C=US, ST=Massachusetts, L=Boston, O=Root, CN=ca.gnu
        Validity
            Not Before: Nov 27 20:51:19 2024 GMT
            Not After : Nov 27 20:51:19 2025 GMT
        Subject: C=US, ST=Massachusetts, O=ICA, CN=ica.gnu
        Subject Public Key Info:
            Public Key Algorithm: rsaEncryption
                Public-Key: (2048 bit)
                Modulus:
                    00:d5:1f:d7:1a:46:9a:70:ed:6a:88:af:be:80:04:
                    42:32:26:cf:c4:d8:11:05:21:3f:b3:ef:29:d9:a3:
                    39:37:b7:89:d5:64:9a:cc:c1:f4:9c:0a:8b:41:cb:
                    09:7e:ab:16:62:24:6b:69:ea:ba:78:a2:97:a3:e4:
                    0a:06:c2:2e:14:31:20:15:61:74:7d:70:5d:e8:9f:
                    33:63:4b:08:81:8b:8f:5a:19:af:92:99:c6:c5:a2:
                    a4:16:f9:1c:fd:bb:03:f4:2a:1e:98:f2:b2:c1:20:
                    69:0e:96:ea:3e:dc:b5:91:40:1f:aa:51:a6:a4:09:
                    06:2f:d9:be:b0:e3:4e:d4:27:2c:b3:74:b2:90:08:
                    09:d6:cb:7a:4f:f0:dd:43:99:ef:22:24:94:04:c0:
                    70:48:ba:d8:c4:4f:64:89:bf:7a:a3:74:27:d6:1f:
                    a7:ab:04:20:e6:99:c8:8f:2f:14:99:02:d1:eb:ce:
                    2b:0f:ba:5e:b4:80:22:7b:ef:3c:0a:90:a4:97:7b:
                    4c:19:5f:d4:5e:d7:21:32:3f:3e:05:8a:67:01:d9:
                    39:f5:7e:39:a7:cf:64:c1:4a:d7:b5:c2:f4:a2:c0:
                    a4:ef:9f:25:96:96:95:bb:bc:44:27:7f:eb:dd:43:
                    b4:28:4a:70:f6:21:83:0f:59:cb:98:69:57:8f:ca:
                    a8:93
                Exponent: 65537 (0x10001)
        X509v3 extensions:
            X509v3 Subject Key Identifier: 
                14:FA:DA:77:F8:45:92:B7:7C:38:FC:74:CA:26:74:2B:B7:D4:36:75
            X509v3 Authority Key Identifier: 
                1A:03:C0:AD:5C:3D:FE:76:38:FC:20:8C:B2:73:5C:A3:44:1D:0F:EC
            X509v3 Basic Constraints: critical
                CA:TRUE, pathlen:0
            X509v3 Key Usage: critical
                Digital Signature, Certificate Sign, CRL Sign
    Signature Algorithm: sha256WithRSAEncryption
    Signature Value:
        00:f7:92:a1:7e:cb:38:f6:62:28:fc:86:ea:7d:64:2a:0e:3d:
        95:e9:86:d1:00:29:42:5f:97:27:60:31:33:6b:b1:40:9e:d0:
        20:fd:c9:a1:19:21:41:91:6d:d0:97:af:0a:9f:e9:55:b8:fe:
        66:20:c6:42:31:9b:8e:08:8e:ea:cb:86:17:e9:12:49:43:de:
        03:74:a2:19:77:7e:4f:ef:f6:3c:7e:d3:ed:47:fd:24:9b:d5:
        cc:29:4a:cf:30:d9:40:bc:73:d9:d6:5f:f1:75:48:f8:00:06:
        2c:a3:84:f0:9d:0c:51:14:40:d0:9d:4b:7c:79:20:93:b9:2f:
        29:f6:39:ae:36:4f:08:45:65:43:f7:4e:5d:88:84:da:fd:46:
        a3:14:2e:cb:b9:fa:80:b4:a6:bf:db:72:91:0d:05:a5:82:f6:
        f9:6c:81:8b:2b:d9:13:5c:cd:d5:da:4b:31:5e:f0:4d:9a:a7:
        2e:cb:73:6e:7e:07:7c:4a:cc:9a:12:f0:cb:86:34:50:73:c6:
        2c:40:23:73:ed:7f:f5:c9:61:8e:85:8b:37:fc:33:20:af:fd:
        6d:4a:cc:3f:60:22:7b:ef:c4:9c:51:d6:f3:de:7c:06:40:a8:
        4f:ea:38:07:b5:df:4f:b0:56:22:af:50:3d:6b:eb:46:42:7b:
        a1:3b:1b:df
-----BEGIN CERTIFICATE-----
MIIDfTCCAmWgAwIBAgICEAEwDQYJKoZIhvcNAQELBQAwVjELMAkGA1UEBhMCVVMx
FjAUBgNVBAgMDU1hc3NhY2h1c2V0dHMxDzANBgNVBAcMBkJvc3RvbjENMAsGA1UE
CgwEUm9vdDEPMA0GA1UEAwwGY2EuZ251MB4XDTI0MTEyNzIwNTExOVoXDTI1MTEy
NzIwNTExOVowRTELMAkGA1UEBhMCVVMxFjAUBgNVBAgMDU1hc3NhY2h1c2V0dHMx
DDAKBgNVBAoMA0lDQTEQMA4GA1UEAwwHaWNhLmdudTCCASIwDQYJKoZIhvcNAQEB
BQADggEPADCCAQoCggEBANUf1xpGmnDtaoivvoAEQjImz8TYEQUhP7PvKdmjOTe3
idVkmszB9JwKi0HLCX6rFmIka2nquniil6PkCgbCLhQxIBVhdH1wXeifM2NLCIGL
j1oZr5KZxsWipBb5HP27A/QqHpjyssEgaQ6W6j7ctZFAH6pRpqQJBi/ZvrDjTtQn
LLN0spAICdbLek/w3UOZ7yIklATAcEi62MRPZIm/eqN0J9Yfp6sEIOaZyI8vFJkC
0evOKw+6XrSAInvvPAqQpJd7TBlf1F7XITI/PgWKZwHZOfV+OafPZMFK17XC9KLA
pO+fJZaWlbu8RCd/691DtChKcPYhgw9Zy5hpV4/KqJMCAwEAAaNmMGQwHQYDVR0O
BBYEFBT62nf4RZK3fDj8dMomdCu31DZ1MB8GA1UdIwQYMBaAFBoDwK1cPf52OPwg
jLJzXKNEHQ/sMBIGA1UdEwEB/wQIMAYBAf8CAQAwDgYDVR0PAQH/BAQDAgGGMA0G
CSqGSIb3DQEBCwUAA4IBAQAA95Khfss49mIo/IbqfWQqDj2V6YbRAClCX5cnYDEz
a7FAntAg/cmhGSFBkW3Ql68Kn+lVuP5mIMZCMZuOCI7qy4YX6RJJQ94DdKIZd35P
7/Y8ftPtR/0km9XMKUrPMNlAvHPZ1l/xdUj4AAYso4TwnQxRFEDQnUt8eSCTuS8p
9jmuNk8IRWVD905diITa/UajFC7LufqAtKa/23KRDQWlgvb5bIGLK9kTXM3V2ksx
XvBNmqcuy3Nufgd8SsyaEvDLhjRQc8YsQCNz7X/1yWGOhYs3/DMgr/1tSsw/YCJ7
78ScUdbz3nwGQKhP6jgHtd9PsFYir1A9a+tGQnuhOxvf
-----END CERTIFICATE-----
Certificate:
    Data:
        Version: 3 (0x2)
        Serial Number: 4097 (0x1001)
        Signature Algorithm: sha256WithRSAEncryption
        Issuer: C=US, ST=Massachusetts, O=ICA, CN=ica.gnu
        Validity
            Not Before: Nov 27 20:51:19 2024 GMT
            Not After : Nov 27 20:51:19 2025 GMT
        Subject: C=US, ST=Massachusetts, O=ICA-Client, CN=other.ica.gnu
        Subject Public Key Info:
            Public Key Algorithm: rsaEncryption
                Public-Key: (2048 bit)
                Modulus:
                    00:9d:83:3b:b3:8c:a9:c6:2c:61:c5:c6:ba:78:c7:
                    0a:bd:31:e6:33:cb:27:39:18:0b:84:ca:ac:95:f2:
                    d1:ac:7a:c2:6d:7a:b0:c0:e0:7b:07:53:33:4a:73:
                    95:e4:ce:7b:dc:7c:c0:cf:39:67:69:32:2c:29:07:
                    ef:cc:d2:42:c2:3d:35:bc:6c:86:1a:fa:22:65:37:
                    84:92:8d:f3:a8:05:61:8f:06:13:bc:29:78:48:5e:
                    10:59:9f:0c:c6:50:d4:13:26:6d:8e:74:cc:92:b2:
                    f2:07:0e:3c:6d:29:93:44:6a:4e:94:8f:20:17:e0:
                    84:58:a5:68:7f:67:bf:cc:61:62:7c:9c:7f:11:48:
                    86:5d:21:35:04:c8:9e:43:ea:10:13:70:ec:94:6e:
                    9b:fa:5c:6a:e9:28:de:cd:1f:e8:50:db:0e:8b:bf:
                    06:8f:4b:41:42:25:10:05:3c:c0:90:4d:e9:8d:3b:
                    cc:ba:66:2f:d7:d0:51:06:7d:d3:ec:2d:c1:af:08:
                    44:40:a8:ad:00:83:99:71:aa:13:d4:7c:ad:eb:8f:
                    97:56:f4:42:25:f8:04:49:b7:04:d4:42:cb:c5:84:
                    aa:c1:b9:6e:eb:b8:e9:40:91:ef:12:2f:35:42:4b:
                    24:a2:e2:84:b4:36:0b:a3:4c:a2:50:f1:54:af:3d:
                    20:2d
                Exponent: 65537 (0x10001)
        X509v3 extensions:
            X509v3 Subject Key Identifier: 
                FA:DA:58:04:3E:83:3F:E7:6D:70:67:98:F4:91:3B:C2:93:64:CE:B9
            X509v3 Authority Key Identifier: 
                14:FA:DA:77:F8:45:92:B7:7C:38:FC:74:CA:26:74:2B:B7:D4:36:75
    Signature Algorithm: sha256WithRSAEncryption
    Signature Value:
        65:ea:4d:a3:36:29:53:f4:fc:06:3c:24:04:f6:82:c3:ff:d5:
        b7:b4:9a:ea:aa:d5:40:6d:6d:11:a2:05:ca:68:1d:91:9f:54:
        63:8a:b6:9f:1b:a2:0a:38:4d:f7:d9:24:68:bc:0b:4d:82:5d:
        e1:6b:28:2f:27:ae:44:35:83:68:00:0b:b2:37:6c:4c:59:0e:
        c3:2d:71:25:46:98:47:36:a8:c5:f3:36:2a:65:0e:7f:10:71:
        3b:82:35:2e:5b:59:d0:3f:c0:ef:b5:f3:c1:33:76:0d:e3:9a:
        00:2a:24:f0:f9:ba:57:01:d4:1d:c4:60:48:81:42:5f:81:02:
        59:10:4f:f7:56:fd:5b:b9:eb:95:e8:9d:22:88:5c:37:e2:56:
        2b:e6:73:42:c5:05:4c:3f:3e:fa:05:b9:b4:e5:e8:21:1b:88:
        e1:20:0e:02:f1:70:e3:f6:23:f6:5c:12:92:cd:16:da:04:b2:
        b6:d9:b4:34:db:46:0a:ac:4d:b1:01:ee:d3:14:ef:92:84:9d:
        3c:f3:f7:75:6a:da:ae:7d:a9:c1:10:36:6f:84:ea:c1:07:89:
        c1:d0:78:43:34:00:22:16:5e:df:82:37:64:c9:e9:8f:5b:d3:
        9b:bb:f2:ea:ea:59:24:00:77:27:27:20:41:38:f9:7b:d6:87:
        6a:80:55:6c
-----BEGIN CERTIFICATE-----
MIIDVTCCAj2gAwIBAgICEAEwDQYJKoZIhvcNAQELBQAwRTELMAkGA1UEBhMCVVMx
FjAUBgNVBAgMDU1hc3NhY2h1c2V0dHMxDDAKBgNVBAoMA0lDQTEQMA4GA1UEAwwH
aWNhLmdudTAeFw0yNDExMjcyMDUxMTlaFw0yNTExMjcyMDUxMTlaMFIxCzAJBgNV
BAYTAlVTMRYwFAYDVQQIDA1NYXNzYWNodXNldHRzMRMwEQYDVQQKDApJQ0EtQ2xp
ZW50MRYwFAYDVQQDDA1vdGhlci5pY2EuZ251MIIBIjANBgkqhkiG9w0BAQEFAAOC
AQ8AMIIBCgKCAQEAnYM7s4ypxixhxca6eMcKvTHmM8snORgLhMqslfLRrHrCbXqw
wOB7B1MzSnOV5M573HzAzzlnaTIsKQfvzNJCwj01vGyGGvoiZTeEko3zqAVhjwYT
vCl4SF4QWZ8MxlDUEyZtjnTMkrLyBw48bSmTRGpOlI8gF+CEWKVof2e/zGFifJx/
EUiGXSE1BMieQ+oQE3DslG6b+lxq6SjezR/oUNsOi78Gj0tBQiUQBTzAkE3pjTvM
umYv19BRBn3T7C3BrwhEQKitAIOZcaoT1Hyt64+XVvRCJfgESbcE1ELLxYSqwblu
67jpQJHvEi81QkskouKEtDYLo0yiUPFUrz0gLQIDAQABo0IwQDAdBgNVHQ4EFgQU
+tpYBD6DP+dtcGeY9JE7wpNkzrkwHwYDVR0jBBgwFoAUFPrad/hFkrd8OPx0yiZ0
K7fUNnUwDQYJKoZIhvcNAQELBQADggEBAGXqTaM2KVP0/AY8JAT2gsP/1be0muqq
1UBtbRGiBcpoHZGfVGOKtp8bogo4TffZJGi8C02CXeFrKC8nrkQ1g2gAC7I3bExZ
DsMtcSVGmEc2qMXzNiplDn8QcTuCNS5bWdA/wO+188Ezdg3jmgAqJPD5ulcB1B3E
YEiBQl+BAlkQT/dW/Vu565XonSKIXDfiVivmc0LFBUw/PvoFubTl6CEbiOEgDgLx
cOP2I/ZcEpLNFtoEsrbZtDTbRgqsTbEB7tMU75KEnTzz93Vq2q59qcEQNm+E6sEH
icHQeEM0ACIWXt+CN2TJ6Y9b05u78urqWSQAdycnIEE4+XvWh2qAVWw=
-----END CERTIFICATE-----
