Certificate:
    Data:
        Version: 3 (0x2)
        Serial Number: 4096 (0x1000)
        Signature Algorithm: sha256WithRSAEncryption
        Issuer: C=US, ST=Massachusetts, L=Boston, O=Root, CN=ca.gnu
        Validity
            Not Before: Nov 29 12:47:17 2024 GMT
            Not After : Nov 29 12:47:17 2025 GMT
        Subject: C=US, ST=Massachusetts, O=Client, CN=client.ca.gnu
        Subject Public Key Info:
            Public Key Algorithm: rsaEncryption
                Public-Key: (2048 bit)
                Modulus:
                    00:be:96:d6:86:31:8a:43:c8:17:8c:b2:34:8a:b7:
                    c7:78:a2:d0:4a:bd:33:fa:b7:18:ec:22:30:60:fc:
                    7a:02:4c:da:16:b1:6a:a8:12:61:66:1b:c7:06:28:
                    4c:85:4e:dd:fa:9f:c6:34:9a:af:29:44:94:65:81:
                    2f:5a:e8:c8:da:32:2a:c1:2b:54:7b:05:1b:e3:29:
                    65:41:1d:18:29:2e:d5:cc:5d:75:28:e1:7b:e4:5e:
                    d6:12:d3:61:01:84:a9:6c:17:01:b3:1a:e1:b8:e9:
                    f0:f5:b4:0a:27:9c:2c:bd:01:a8:ad:bd:1e:b2:21:
                    b2:f6:33:c5:76:7a:6e:c7:87:83:d7:10:09:db:1b:
                    79:ce:cb:a8:59:cb:06:59:9d:b7:09:02:6f:a0:01:
                    01:5a:62:56:fd:5b:49:79:0d:5a:c6:f7:fd:b0:fe:
                    9b:3e:44:62:aa:f3:87:77:1e:48:ee:44:da:0d:15:
                    03:85:21:18:a2:9b:a7:1c:fe:1d:06:32:74:d3:b9:
                    e1:f5:bd:7c:d4:fd:06:6c:26:87:2c:62:91:14:2c:
                    79:ae:68:1f:7a:62:29:20:b6:ea:cd:63:4b:ab:21:
                    ce:7a:ff:96:66:a1:fd:72:34:07:6c:a3:77:08:b6:
                    8e:b5:cf:97:4b:bf:3d:e2:6e:ca:c3:d9:9b:52:5f:
                    67:43
                Exponent: 65537 (0x10001)
        X509v3 extensions:
            X509v3 Subject Key Identifier: 
                7D:AD:67:F3:E1:9C:7E:76:DE:AA:2B:C4:E2:8C:4C:F9:92:C8:62:04
            X509v3 Authority Key Identifier: 
                B2:F7:59:A1:7D:D1:C5:D3:7A:C2:B3:8D:AF:7D:52:38:0F:50:6D:CE
    Signature Algorithm: sha256WithRSAEncryption
    Signature Value:
        5a:d8:e8:7a:a1:52:cd:0f:e6:7d:6c:9b:6e:d4:70:2f:bd:1c:
        91:43:52:40:36:99:04:de:c8:27:21:97:29:64:bf:ad:51:d2:
        6e:76:71:89:14:7d:f7:4e:81:49:14:88:e7:c8:67:ad:3a:f6:
        fd:e7:1e:6a:dd:27:cf:32:40:87:27:54:a0:e2:2c:dd:ce:19:
        f3:8a:b8:ef:1c:60:3e:e0:fa:07:18:9e:f7:9f:f9:f1:c1:5e:
        4e:e8:a2:d3:88:bf:b6:ef:2d:80:42:d9:69:90:a9:bd:5a:7e:
        63:54:b0:f1:46:eb:10:72:5c:dc:17:e7:f2:85:ff:eb:47:09:
        69:03:64:4e:72:bf:1d:7a:45:de:8b:84:ce:aa:c5:14:78:d3:
        f8:0b:bc:2e:a1:c6:3d:71:eb:68:38:72:b1:05:dc:a5:7c:72:
        12:61:f6:a9:3d:c0:1d:3d:df:01:f1:e9:d7:75:a9:6a:37:6d:
        a5:48:ed:eb:53:e1:bd:d0:ec:eb:92:62:b9:90:bb:cb:05:da:
        70:8e:33:f5:fc:bd:a3:50:a9:8e:47:82:01:66:11:51:5c:74:
        cc:4d:a2:c4:de:56:75:8d:01:c1:e8:47:13:c1:d7:8c:ec:67:
        84:6a:aa:a8:9a:d9:0c:9b:11:df:ab:51:a7:27:6b:b7:de:47:
        18:99:d5:2b
-----BEGIN CERTIFICATE-----
MIIDYjCCAkqgAwIBAgICEAAwDQYJKoZIhvcNAQELBQAwVjELMAkGA1UEBhMCVVMx
FjAUBgNVBAgMDU1hc3NhY2h1c2V0dHMxDzANBgNVBAcMBkJvc3RvbjENMAsGA1UE
CgwEUm9vdDEPMA0GA1UEAwwGY2EuZ251MB4XDTI0MTEyOTEyNDcxN1oXDTI1MTEy
OTEyNDcxN1owTjELMAkGA1UEBhMCVVMxFjAUBgNVBAgMDU1hc3NhY2h1c2V0dHMx
DzANBgNVBAoMBkNsaWVudDEWMBQGA1UEAwwNY2xpZW50LmNhLmdudTCCASIwDQYJ
KoZIhvcNAQEBBQADggEPADCCAQoCggEBAL6W1oYxikPIF4yyNIq3x3ii0Eq9M/q3
GOwiMGD8egJM2haxaqgSYWYbxwYoTIVO3fqfxjSarylElGWBL1royNoyKsErVHsF
G+MpZUEdGCku1cxddSjhe+Re1hLTYQGEqWwXAbMa4bjp8PW0CiecLL0BqK29HrIh
svYzxXZ6bseHg9cQCdsbec7LqFnLBlmdtwkCb6ABAVpiVv1bSXkNWsb3/bD+mz5E
Yqrzh3ceSO5E2g0VA4UhGKKbpxz+HQYydNO54fW9fNT9BmwmhyxikRQsea5oH3pi
KSC26s1jS6shznr/lmah/XI0B2yjdwi2jrXPl0u/PeJuysPZm1JfZ0MCAwEAAaNC
MEAwHQYDVR0OBBYEFH2tZ/PhnH523qorxOKMTPmSyGIEMB8GA1UdIwQYMBaAFLL3
WaF90cXTesKzja99UjgPUG3OMA0GCSqGSIb3DQEBCwUAA4IBAQBa2Oh6oVLND+Z9
bJtu1HAvvRyRQ1JANpkE3sgnIZcpZL+tUdJudnGJFH33ToFJFIjnyGetOvb95x5q
3SfPMkCHJ1Sg4izdzhnzirjvHGA+4PoHGJ73n/nxwV5O6KLTiL+27y2AQtlpkKm9
Wn5jVLDxRusQclzcF+fyhf/rRwlpA2ROcr8dekXei4TOqsUUeNP4C7wuocY9ceto
OHKxBdylfHISYfapPcAdPd8B8enXdalqN22lSO3rU+G90OzrkmK5kLvLBdpwjjP1
/L2jUKmOR4IBZhFRXHTMTaLE3lZ1jQHB6EcTwdeM7GeEaqqomtkMmxHfq1GnJ2u3
3kcYmdUr
-----END CERTIFICATE-----
