Certificate:
    Data:
        Version: 3 (0x2)
        Serial Number: 4097 (0x1001)
        Signature Algorithm: sha256WithRSAEncryption
        Issuer: C=US, ST=Massachusetts, L=Boston, O=Root, CN=ca.gnu
        Validity
            Not Before: Nov 27 20:51:19 2024 GMT
            Not After : Nov 27 20:51:19 2025 GMT
        Subject: C=US, ST=Massachusetts, O=ICA, CN=ica.gnu
        Subject Public Key Info:
            Public Key Algorithm: rsaEncryption
                Public-Key: (2048 bit)
                Modulus:
                    00:d5:1f:d7:1a:46:9a:70:ed:6a:88:af:be:80:04:
                    42:32:26:cf:c4:d8:11:05:21:3f:b3:ef:29:d9:a3:
                    39:37:b7:89:d5:64:9a:cc:c1:f4:9c:0a:8b:41:cb:
                    09:7e:ab:16:62:24:6b:69:ea:ba:78:a2:97:a3:e4:
                    0a:06:c2:2e:14:31:20:15:61:74:7d:70:5d:e8:9f:
                    33:63:4b:08:81:8b:8f:5a:19:af:92:99:c6:c5:a2:
                    a4:16:f9:1c:fd:bb:03:f4:2a:1e:98:f2:b2:c1:20:
                    69:0e:96:ea:3e:dc:b5:91:40:1f:aa:51:a6:a4:09:
                    06:2f:d9:be:b0:e3:4e:d4:27:2c:b3:74:b2:90:08:
                    09:d6:cb:7a:4f:f0:dd:43:99:ef:22:24:94:04:c0:
                    70:48:ba:d8:c4:4f:64:89:bf:7a:a3:74:27:d6:1f:
                    a7:ab:04:20:e6:99:c8:8f:2f:14:99:02:d1:eb:ce:
                    2b:0f:ba:5e:b4:80:22:7b:ef:3c:0a:90:a4:97:7b:
                    4c:19:5f:d4:5e:d7:21:32:3f:3e:05:8a:67:01:d9:
                    39:f5:7e:39:a7:cf:64:c1:4a:d7:b5:c2:f4:a2:c0:
                    a4:ef:9f:25:96:96:95:bb:bc:44:27:7f:eb:dd:43:
                    b4:28:4a:70:f6:21:83:0f:59:cb:98:69:57:8f:ca:
                    a8:93
                Exponent: 65537 (0x10001)
        X509v3 extensions:
            X509v3 Subject Key Identifier: 
                14:FA:DA:77:F8:45:92:B7:7C:38:FC:74:CA:26:74:2B:B7:D4:36:75
            X509v3 Authority Key Identifier: 
                1A:03:C0:AD:5C:3D:FE:76:38:FC:20:8C:B2:73:5C:A3:44:1D:0F:EC
            X509v3 Basic Constraints: critical
                CA:TRUE, pathlen:0
            X509v3 Key Usage: critical
                Digital Signature, Certificate Sign, CRL Sign
    Signature Algorithm: sha256WithRSAEncryption
    Signature Value:
        00:f7:92:a1:7e:cb:38:f6:62:28:fc:86:ea:7d:64:2a:0e:3d:
        95:e9:86:d1:00:29:42:5f:97:27:60:31:33:6b:b1:40:9e:d0:
        20:fd:c9:a1:19:21:41:91:6d:d0:97:af:0a:9f:e9:55:b8:fe:
        66:20:c6:42:31:9b:8e:08:8e:ea:cb:86:17:e9:12:49:43:de:
        03:74:a2:19:77:7e:4f:ef:f6:3c:7e:d3:ed:47:fd:24:9b:d5:
        cc:29:4a:cf:30:d9:40:bc:73:d9:d6:5f:f1:75:48:f8:00:06:
        2c:a3:84:f0:9d:0c:51:14:40:d0:9d:4b:7c:79:20:93:b9:2f:
        29:f6:39:ae:36:4f:08:45:65:43:f7:4e:5d:88:84:da:fd:46:
        a3:14:2e:cb:b9:fa:80:b4:a6:bf:db:72:91:0d:05:a5:82:f6:
        f9:6c:81:8b:2b:d9:13:5c:cd:d5:da:4b:31:5e:f0:4d:9a:a7:
        2e:cb:73:6e:7e:07:7c:4a:cc:9a:12:f0:cb:86:34:50:73:c6:
        2c:40:23:73:ed:7f:f5:c9:61:8e:85:8b:37:fc:33:20:af:fd:
        6d:4a:cc:3f:60:22:7b:ef:c4:9c:51:d6:f3:de:7c:06:40:a8:
        4f:ea:38:07:b5:df:4f:b0:56:22:af:50:3d:6b:eb:46:42:7b:
        a1:3b:1b:df
-----BEGIN CERTIFICATE-----
MIIDfTCCAmWgAwIBAgICEAEwDQYJKoZIhvcNAQELBQAwVjELMAkGA1UEBhMCVVMx
FjAUBgNVBAgMDU1hc3NhY2h1c2V0dHMxDzANBgNVBAcMBkJvc3RvbjENMAsGA1UE
CgwEUm9vdDEPMA0GA1UEAwwGY2EuZ251MB4XDTI0MTEyNzIwNTExOVoXDTI1MTEy
NzIwNTExOVowRTELMAkGA1UEBhMCVVMxFjAUBgNVBAgMDU1hc3NhY2h1c2V0dHMx
DDAKBgNVBAoMA0lDQTEQMA4GA1UEAwwHaWNhLmdudTCCASIwDQYJKoZIhvcNAQEB
BQADggEPADCCAQoCggEBANUf1xpGmnDtaoivvoAEQjImz8TYEQUhP7PvKdmjOTe3
idVkmszB9JwKi0HLCX6rFmIka2nquniil6PkCgbCLhQxIBVhdH1wXeifM2NLCIGL
j1oZr5KZxsWipBb5HP27A/QqHpjyssEgaQ6W6j7ctZFAH6pRpqQJBi/ZvrDjTtQn
LLN0spAICdbLek/w3UOZ7yIklATAcEi62MRPZIm/eqN0J9Yfp6sEIOaZyI8vFJkC
0evOKw+6XrSAInvvPAqQpJd7TBlf1F7XITI/PgWKZwHZOfV+OafPZMFK17XC9KLA
pO+fJZaWlbu8RCd/691DtChKcPYhgw9Zy5hpV4/KqJMCAwEAAaNmMGQwHQYDVR0O
BBYEFBT62nf4RZK3fDj8dMomdCu31DZ1MB8GA1UdIwQYMBaAFBoDwK1cPf52OPwg
jLJzXKNEHQ/sMBIGA1UdEwEB/wQIMAYBAf8CAQAwDgYDVR0PAQH/BAQDAgGGMA0G
CSqGSIb3DQEBCwUAA4IBAQAA95Khfss49mIo/IbqfWQqDj2V6YbRAClCX5cnYDEz
a7FAntAg/cmhGSFBkW3Ql68Kn+lVuP5mIMZCMZuOCI7qy4YX6RJJQ94DdKIZd35P
7/Y8ftPtR/0km9XMKUrPMNlAvHPZ1l/xdUj4AAYso4TwnQxRFEDQnUt8eSCTuS8p
9jmuNk8IRWVD905diITa/UajFC7LufqAtKa/23KRDQWlgvb5bIGLK9kTXM3V2ksx
XvBNmqcuy3Nufgd8SsyaEvDLhjRQc8YsQCNz7X/1yWGOhYs3/DMgr/1tSsw/YCJ7
78ScUdbz3nwGQKhP6jgHtd9PsFYir1A9a+tGQnuhOxvf
-----END CERTIFICATE-----
-----BEGIN CERTIFICATE-----
MIIDjTCCAnWgAwIBAgIUKMfxjtTv4pQhDgO7XhYH2psGmw4wDQYJKoZIhvcNAQEL
BQAwVjELMAkGA1UEBhMCVVMxFjAUBgNVBAgMDU1hc3NhY2h1c2V0dHMxDzANBgNV
BAcMBkJvc3RvbjENMAsGA1UECgwEUm9vdDEPMA0GA1UEAwwGY2EuZ251MB4XDTI0
MTEyNzIwNTExOVoXDTM0MTEyNTIwNTExOVowVjELMAkGA1UEBhMCVVMxFjAUBgNV
BAgMDU1hc3NhY2h1c2V0dHMxDzANBgNVBAcMBkJvc3RvbjENMAsGA1UECgwEUm9v
dDEPMA0GA1UEAwwGY2EuZ251MIIBIjANBgkqhkiG9w0BAQEFAAOCAQ8AMIIBCgKC
AQEAyLov3+OByx5stGOVpSdFT7/9jjCvocEHWVRMTFdWQLDUTKjS7FypFNzAuXUC
ydO7I5sgvITy9Awg/vRTafuCVP0WtFdO1Jphw4Q3go+uNRVGAhBHV5SegPqkv0u6
Cb2kZzW88klhyRS8x/41xwJeSXmFHva0VsAy9b0K7UFTDtCKBT+Rb6TRcuYeFI7p
2fr9OUACg+OtwvYFgKptS+NhwQeq3EIx7SVOHQg3FO2DJlr1EX+k4ItTYX7qLn6R
ebrsZX1SitJ5BMmLCOOoj6NSziqEo4HFeU0A9fXmPJ3QAx1zuef8qah4wYk+cuxr
QKVMPRqUvtzgYM7SL/A3Qh6cKwIDAQABo1MwUTAdBgNVHQ4EFgQUGgPArVw9/nY4
/CCMsnNco0QdD+wwHwYDVR0jBBgwFoAUGgPArVw9/nY4/CCMsnNco0QdD+wwDwYD
VR0TAQH/BAUwAwEB/zANBgkqhkiG9w0BAQsFAAOCAQEAhIf5Q6P83PBOUN3XFSK7
uZJPOEBkixcbzS6pBZ/9YYGSNfB2dtO1NEiTDkdDC2YwP4wf1hCDiIvIn9Um+PzV
jYQjIDMK4oOFmigpbFbjyPHDYHLHmWLFtHA9V2ISE1O8TGxw7wQSpqBKoibAuaT6
Balg5J7Rhs1em6SEmfEvgOzuVWU9g1nOlmJqTwshPQeq+uPZOzjaC5ofiq7Wr8rj
+GDuZE2HBN/sL8Ojxx9N0vfMctw3Xl26x3j9paH8PgKBp72wplIa3i8r7zfX999P
SwvOIqwTtQu3nED2hwz/EjNPGhFlXdUiM3sSvxgGY8PeyR5M6dxQggVxMxUa++Nx
bQ==
-----END CERTIFICATE-----
